opt subtitle "HI-TECH Software Omniscient Code Generator (Lite mode) build 10920"

opt pagewidth 120

	opt lm

	processor	16F877A
clrc	macro
	bcf	3,0
	endm
clrz	macro
	bcf	3,2
	endm
setc	macro
	bsf	3,0
	endm
setz	macro
	bsf	3,2
	endm
skipc	macro
	btfss	3,0
	endm
skipz	macro
	btfss	3,2
	endm
skipnc	macro
	btfsc	3,0
	endm
skipnz	macro
	btfsc	3,2
	endm
indf	equ	0
indf0	equ	0
pc	equ	2
pcl	equ	2
status	equ	3
fsr	equ	4
fsr0	equ	4
c	equ	1
z	equ	0
pclath	equ	10
	FNROOT	_main
	global	_CARRY
psect	maintext,global,class=CODE,delta=2
global __pmaintext
__pmaintext:
_CARRY	set	24
	global	_CMIF
_CMIF	set	110
	global	_GIE
_GIE	set	95
	global	_PEIE
_PEIE	set	94
	global	_RB1
_RB1	set	49
	global	_RB2
_RB2	set	50
	global	_RB3
_RB3	set	51
	global	_TRISA
_TRISA	set	133
	global	_TRISB
_TRISB	set	134
	global	_C1INV
_C1INV	set	1252
	global	_C1OUT
_C1OUT	set	1254
	global	_C2INV
_C2INV	set	1253
	global	_CIS
_CIS	set	1251
	global	_CM0
_CM0	set	1248
	global	_CM1
_CM1	set	1249
	global	_CM2
_CM2	set	1250
	global	_CMIE
_CMIE	set	1134
	global	_TRISB1
_TRISB1	set	1073
	global	_TRISB2
_TRISB2	set	1074
	global	_TRISB3
_TRISB3	set	1075
	global	_EEADR
_EEADR	set	269
	global	_EEDATA
_EEDATA	set	268
	global	_EECON1
_EECON1	set	396
	global	_EECON2
_EECON2	set	397
	global	_RD
_RD	set	3168
	global	_WR
_WR	set	3169
	global	_WREN
_WREN	set	3170
	file	"comparador_analogico.as"
	line	#
psect cinit,class=CODE,delta=2
global start_initialization
start_initialization:

psect cinit,class=CODE,delta=2
global end_of_initialization

;End of C runtime variable initialization code

end_of_initialization:
clrf status
ljmp _main	;jump to C main() function
psect	cstackCOMMON,class=COMMON,space=1
global __pcstackCOMMON
__pcstackCOMMON:
	global	?_main
?_main:	; 0 bytes @ 0x0
	global	??_main
??_main:	; 0 bytes @ 0x0
	ds	3
;;Data sizes: Strings 0, constant 0, data 0, bss 0, persistent 0 stack 0
;;Auto spaces:   Size  Autos    Used
;; COMMON          14      3       3
;; BANK0           80      0       0
;; BANK1           80      0       0
;; BANK3           96      0       0
;; BANK2           96      0       0

;;
;; Pointer list with targets:



;;
;; Critical Paths under _main in COMMON
;;
;;   None.
;;
;; Critical Paths under _main in BANK0
;;
;;   None.
;;
;; Critical Paths under _main in BANK1
;;
;;   None.
;;
;; Critical Paths under _main in BANK3
;;
;;   None.
;;
;; Critical Paths under _main in BANK2
;;
;;   None.

;;
;;Main: autosize = 0, tempsize = 3, incstack = 0, save=0
;;

;;
;;Call Graph Tables:
;;
;; ---------------------------------------------------------------------------------
;; (Depth) Function   	        Calls       Base Space   Used Autos Params    Refs
;; ---------------------------------------------------------------------------------
;; (0) _main                                                 3     3      0       0
;;                                              0 COMMON     3     3      0
;; ---------------------------------------------------------------------------------
;; Estimated maximum stack depth 0
;; ---------------------------------------------------------------------------------

;; Call Graph Graphs:

;; _main (ROOT)
;;

;; Address spaces:

;;Name               Size   Autos  Total    Cost      Usage
;;BITCOMMON            E      0       0       0        0.0%
;;EEDATA             100      0       0       0        0.0%
;;NULL                 0      0       0       0        0.0%
;;CODE                 0      0       0       0        0.0%
;;COMMON               E      3       3       1       21.4%
;;BITSFR0              0      0       0       1        0.0%
;;SFR0                 0      0       0       1        0.0%
;;BITSFR1              0      0       0       2        0.0%
;;SFR1                 0      0       0       2        0.0%
;;STACK                0      0       0       2        0.0%
;;ABS                  0      0       0       3        0.0%
;;BITBANK0            50      0       0       4        0.0%
;;BITSFR3              0      0       0       4        0.0%
;;SFR3                 0      0       0       4        0.0%
;;BANK0               50      0       0       5        0.0%
;;BITSFR2              0      0       0       5        0.0%
;;SFR2                 0      0       0       5        0.0%
;;BITBANK1            50      0       0       6        0.0%
;;BANK1               50      0       0       7        0.0%
;;BITBANK3            60      0       0       8        0.0%
;;BANK3               60      0       0       9        0.0%
;;BITBANK2            60      0       0      10        0.0%
;;BANK2               60      0       0      11        0.0%
;;DATA                 0      0       0      12        0.0%

	global	_main
psect	maintext

;; *************** function _main *****************
;; Defined at:
;;		line 15 in file "C:\Documents and Settings\Admin\Desktop\Microcontroladores - Felipe, Gugu e Bia\comparador_analogico\comparador_analogico.c"
;; Parameters:    Size  Location     Type
;;		None
;; Auto vars:     Size  Location     Type
;;		None
;; Return value:  Size  Location     Type
;;		None               void
;; Registers used:
;;		wreg
;; Tracked objects:
;;		On entry : 17F/0
;;		On exit  : 0/0
;;		Unchanged: 0/0
;; Data sizes:     COMMON   BANK0   BANK1   BANK3   BANK2
;;      Params:         0       0       0       0       0
;;      Locals:         0       0       0       0       0
;;      Temps:          3       0       0       0       0
;;      Totals:         3       0       0       0       0
;;Total ram usage:        3 bytes
;; This function calls:
;;		Nothing
;; This function is called by:
;;		Startup code after reset
;; This function uses a non-reentrant model
;;
psect	maintext
	file	"C:\Documents and Settings\Admin\Desktop\Microcontroladores - Felipe, Gugu e Bia\comparador_analogico\comparador_analogico.c"
	line	15
	global	__size_of_main
	__size_of_main	equ	__end_of_main-_main
	
_main:	
	opt	stack 8
; Regs used in _main: [wreg]
	line	16
	
l2597:	
# 16 "C:\Documents and Settings\Admin\Desktop\Microcontroladores - Felipe, Gugu e Bia\comparador_analogico\comparador_analogico.c"
	psect config,class=CONFIG,delta=2 ;#
# 16 "C:\Documents and Settings\Admin\Desktop\Microcontroladores - Felipe, Gugu e Bia\comparador_analogico\comparador_analogico.c"
	dw 0xFFFF & 0xFFFB & 0xFFBF & 0xFFFF & 0xFFFE & 0xFFFF & 0xFF7F & 0xFFFF ;#
psect	maintext
	line	18
	
l2599:	
;comparador_analogico.c: 18: TRISB = 0b11111111;
	movlw	(0FFh)
	bsf	status, 5	;RP0=1, select bank1
	bcf	status, 6	;RP1=0, select bank1
	movwf	(134)^080h	;volatile
	line	19
	
l2601:	
;comparador_analogico.c: 19: TRISB1 = 0;
	bcf	(1073/8)^080h,(1073)&7
	line	20
	
l2603:	
;comparador_analogico.c: 20: TRISB2 = 0;
	bcf	(1074/8)^080h,(1074)&7
	line	21
	
l2605:	
;comparador_analogico.c: 21: TRISB3 = 0;
	bcf	(1075/8)^080h,(1075)&7
	line	23
;comparador_analogico.c: 23: TRISA = 0b001111;
	movlw	(0Fh)
	movwf	(133)^080h	;volatile
	line	28
	
l2607:	
;comparador_analogico.c: 28: C2INV = 0;
	bcf	(1253/8)^080h,(1253)&7
	line	29
	
l2609:	
;comparador_analogico.c: 29: C1INV = 0;
	bcf	(1252/8)^080h,(1252)&7
	line	30
	
l2611:	
;comparador_analogico.c: 30: CIS = 0;
	bcf	(1251/8)^080h,(1251)&7
	line	31
	
l2613:	
;comparador_analogico.c: 31: CM2 = 0;
	bcf	(1250/8)^080h,(1250)&7
	line	32
	
l2615:	
;comparador_analogico.c: 32: CM1 = 1;
	bsf	(1249/8)^080h,(1249)&7
	line	33
	
l2617:	
;comparador_analogico.c: 33: CM0 = 0;
	bcf	(1248/8)^080h,(1248)&7
	line	35
	
l2619:	
;comparador_analogico.c: 35: CMIF = 0;
	bcf	status, 5	;RP0=0, select bank0
	bcf	status, 6	;RP1=0, select bank0
	bcf	(110/8),(110)&7
	line	36
	
l2621:	
;comparador_analogico.c: 36: CMIE = 0;
	bsf	status, 5	;RP0=1, select bank1
	bcf	status, 6	;RP1=0, select bank1
	bcf	(1134/8)^080h,(1134)&7
	line	37
	
l2623:	
;comparador_analogico.c: 37: PEIE = 0;
	bcf	(94/8),(94)&7
	line	38
	
l2625:	
;comparador_analogico.c: 38: GIE = 0;
	bcf	(95/8),(95)&7
	line	41
	
l2627:	
;comparador_analogico.c: 41: RB1 = 1;
	bcf	status, 5	;RP0=0, select bank0
	bcf	status, 6	;RP1=0, select bank0
	bsf	(49/8),(49)&7
	line	42
;comparador_analogico.c: 42: _delay((unsigned long)((500)*(20000000/4000.0)));
	opt asmopt_off
movlw  13
movwf	((??_main+0)+0+2),f
movlw	175
movwf	((??_main+0)+0+1),f
	movlw	193
movwf	((??_main+0)+0),f
u2237:
	decfsz	((??_main+0)+0),f
	goto	u2237
	decfsz	((??_main+0)+0+1),f
	goto	u2237
	decfsz	((??_main+0)+0+2),f
	goto	u2237
	clrwdt
opt asmopt_on

	line	43
	
l2629:	
;comparador_analogico.c: 43: RB1 = 0;
	bcf	status, 5	;RP0=0, select bank0
	bcf	status, 6	;RP1=0, select bank0
	bcf	(49/8),(49)&7
	line	44
;comparador_analogico.c: 44: _delay((unsigned long)((500)*(20000000/4000.0)));
	opt asmopt_off
movlw  13
movwf	((??_main+0)+0+2),f
movlw	175
movwf	((??_main+0)+0+1),f
	movlw	193
movwf	((??_main+0)+0),f
u2247:
	decfsz	((??_main+0)+0),f
	goto	u2247
	decfsz	((??_main+0)+0+1),f
	goto	u2247
	decfsz	((??_main+0)+0+2),f
	goto	u2247
	clrwdt
opt asmopt_on

	line	45
	
l2631:	
;comparador_analogico.c: 45: RB1 = 1;
	bcf	status, 5	;RP0=0, select bank0
	bcf	status, 6	;RP1=0, select bank0
	bsf	(49/8),(49)&7
	line	46
;comparador_analogico.c: 46: _delay((unsigned long)((500)*(20000000/4000.0)));
	opt asmopt_off
movlw  13
movwf	((??_main+0)+0+2),f
movlw	175
movwf	((??_main+0)+0+1),f
	movlw	193
movwf	((??_main+0)+0),f
u2257:
	decfsz	((??_main+0)+0),f
	goto	u2257
	decfsz	((??_main+0)+0+1),f
	goto	u2257
	decfsz	((??_main+0)+0+2),f
	goto	u2257
	clrwdt
opt asmopt_on

	line	47
	
l2633:	
;comparador_analogico.c: 47: RB1 = 0;
	bcf	status, 5	;RP0=0, select bank0
	bcf	status, 6	;RP1=0, select bank0
	bcf	(49/8),(49)&7
	line	48
;comparador_analogico.c: 48: _delay((unsigned long)((500)*(20000000/4000.0)));
	opt asmopt_off
movlw  13
movwf	((??_main+0)+0+2),f
movlw	175
movwf	((??_main+0)+0+1),f
	movlw	193
movwf	((??_main+0)+0),f
u2267:
	decfsz	((??_main+0)+0),f
	goto	u2267
	decfsz	((??_main+0)+0+1),f
	goto	u2267
	decfsz	((??_main+0)+0+2),f
	goto	u2267
	clrwdt
opt asmopt_on

	line	50
	
l2635:	
;comparador_analogico.c: 50: RB2 = 1;
	bcf	status, 5	;RP0=0, select bank0
	bcf	status, 6	;RP1=0, select bank0
	bsf	(50/8),(50)&7
	line	51
;comparador_analogico.c: 51: _delay((unsigned long)((500)*(20000000/4000.0)));
	opt asmopt_off
movlw  13
movwf	((??_main+0)+0+2),f
movlw	175
movwf	((??_main+0)+0+1),f
	movlw	193
movwf	((??_main+0)+0),f
u2277:
	decfsz	((??_main+0)+0),f
	goto	u2277
	decfsz	((??_main+0)+0+1),f
	goto	u2277
	decfsz	((??_main+0)+0+2),f
	goto	u2277
	clrwdt
opt asmopt_on

	line	52
	
l2637:	
;comparador_analogico.c: 52: RB2 = 0;
	bcf	status, 5	;RP0=0, select bank0
	bcf	status, 6	;RP1=0, select bank0
	bcf	(50/8),(50)&7
	line	53
;comparador_analogico.c: 53: _delay((unsigned long)((500)*(20000000/4000.0)));
	opt asmopt_off
movlw  13
movwf	((??_main+0)+0+2),f
movlw	175
movwf	((??_main+0)+0+1),f
	movlw	193
movwf	((??_main+0)+0),f
u2287:
	decfsz	((??_main+0)+0),f
	goto	u2287
	decfsz	((??_main+0)+0+1),f
	goto	u2287
	decfsz	((??_main+0)+0+2),f
	goto	u2287
	clrwdt
opt asmopt_on

	line	54
	
l2639:	
;comparador_analogico.c: 54: RB2 = 1;
	bcf	status, 5	;RP0=0, select bank0
	bcf	status, 6	;RP1=0, select bank0
	bsf	(50/8),(50)&7
	line	55
;comparador_analogico.c: 55: _delay((unsigned long)((500)*(20000000/4000.0)));
	opt asmopt_off
movlw  13
movwf	((??_main+0)+0+2),f
movlw	175
movwf	((??_main+0)+0+1),f
	movlw	193
movwf	((??_main+0)+0),f
u2297:
	decfsz	((??_main+0)+0),f
	goto	u2297
	decfsz	((??_main+0)+0+1),f
	goto	u2297
	decfsz	((??_main+0)+0+2),f
	goto	u2297
	clrwdt
opt asmopt_on

	line	56
	
l2641:	
;comparador_analogico.c: 56: RB2 = 0;
	bcf	status, 5	;RP0=0, select bank0
	bcf	status, 6	;RP1=0, select bank0
	bcf	(50/8),(50)&7
	line	57
;comparador_analogico.c: 57: _delay((unsigned long)((500)*(20000000/4000.0)));
	opt asmopt_off
movlw  13
movwf	((??_main+0)+0+2),f
movlw	175
movwf	((??_main+0)+0+1),f
	movlw	193
movwf	((??_main+0)+0),f
u2307:
	decfsz	((??_main+0)+0),f
	goto	u2307
	decfsz	((??_main+0)+0+1),f
	goto	u2307
	decfsz	((??_main+0)+0+2),f
	goto	u2307
	clrwdt
opt asmopt_on

	line	60
	
l2643:	
;comparador_analogico.c: 60: RB3 = 1;
	bcf	status, 5	;RP0=0, select bank0
	bcf	status, 6	;RP1=0, select bank0
	bsf	(51/8),(51)&7
	line	61
;comparador_analogico.c: 61: _delay((unsigned long)((500)*(20000000/4000.0)));
	opt asmopt_off
movlw  13
movwf	((??_main+0)+0+2),f
movlw	175
movwf	((??_main+0)+0+1),f
	movlw	193
movwf	((??_main+0)+0),f
u2317:
	decfsz	((??_main+0)+0),f
	goto	u2317
	decfsz	((??_main+0)+0+1),f
	goto	u2317
	decfsz	((??_main+0)+0+2),f
	goto	u2317
	clrwdt
opt asmopt_on

	line	62
	
l2645:	
;comparador_analogico.c: 62: RB3 = 0;
	bcf	status, 5	;RP0=0, select bank0
	bcf	status, 6	;RP1=0, select bank0
	bcf	(51/8),(51)&7
	line	63
;comparador_analogico.c: 63: _delay((unsigned long)((500)*(20000000/4000.0)));
	opt asmopt_off
movlw  13
movwf	((??_main+0)+0+2),f
movlw	175
movwf	((??_main+0)+0+1),f
	movlw	193
movwf	((??_main+0)+0),f
u2327:
	decfsz	((??_main+0)+0),f
	goto	u2327
	decfsz	((??_main+0)+0+1),f
	goto	u2327
	decfsz	((??_main+0)+0+2),f
	goto	u2327
	clrwdt
opt asmopt_on

	line	64
	
l2647:	
;comparador_analogico.c: 64: RB3 = 1;
	bcf	status, 5	;RP0=0, select bank0
	bcf	status, 6	;RP1=0, select bank0
	bsf	(51/8),(51)&7
	line	65
;comparador_analogico.c: 65: _delay((unsigned long)((500)*(20000000/4000.0)));
	opt asmopt_off
movlw  13
movwf	((??_main+0)+0+2),f
movlw	175
movwf	((??_main+0)+0+1),f
	movlw	193
movwf	((??_main+0)+0),f
u2337:
	decfsz	((??_main+0)+0),f
	goto	u2337
	decfsz	((??_main+0)+0+1),f
	goto	u2337
	decfsz	((??_main+0)+0+2),f
	goto	u2337
	clrwdt
opt asmopt_on

	goto	l2649
	line	70
;comparador_analogico.c: 70: while(1)
	
l687:	
	line	73
	
l2649:	
;comparador_analogico.c: 71: {
;comparador_analogico.c: 73: if(C1OUT)
	bsf	status, 5	;RP0=1, select bank1
	bcf	status, 6	;RP1=0, select bank1
	btfss	(1254/8)^080h,(1254)&7
	goto	u2221
	goto	u2220
u2221:
	goto	l688
u2220:
	line	75
	
l2651:	
;comparador_analogico.c: 74: {
;comparador_analogico.c: 75: RB2 = 1;
	bcf	status, 5	;RP0=0, select bank0
	bcf	status, 6	;RP1=0, select bank0
	bsf	(50/8),(50)&7
	line	76
;comparador_analogico.c: 76: }else
	goto	l689
	
l688:	
	line	78
;comparador_analogico.c: 77: {
;comparador_analogico.c: 78: RB2 = 0;
	bcf	status, 5	;RP0=0, select bank0
	bcf	status, 6	;RP1=0, select bank0
	bcf	(50/8),(50)&7
	line	79
	
l689:	
	line	81
;comparador_analogico.c: 79: }
;comparador_analogico.c: 81: RB1 = 1;
	bsf	(49/8),(49)&7
	line	82
	
l2653:	
;comparador_analogico.c: 82: _delay((unsigned long)((200)*(20000000/4000.0)));
	opt asmopt_off
movlw  6
movwf	((??_main+0)+0+2),f
movlw	19
movwf	((??_main+0)+0+1),f
	movlw	177
movwf	((??_main+0)+0),f
u2347:
	decfsz	((??_main+0)+0),f
	goto	u2347
	decfsz	((??_main+0)+0+1),f
	goto	u2347
	decfsz	((??_main+0)+0+2),f
	goto	u2347
	nop2
opt asmopt_on

	line	83
	
l2655:	
;comparador_analogico.c: 83: RB1 = 0;
	bcf	status, 5	;RP0=0, select bank0
	bcf	status, 6	;RP1=0, select bank0
	bcf	(49/8),(49)&7
	line	84
;comparador_analogico.c: 84: _delay((unsigned long)((200)*(20000000/4000.0)));
	opt asmopt_off
movlw  6
movwf	((??_main+0)+0+2),f
movlw	19
movwf	((??_main+0)+0+1),f
	movlw	177
movwf	((??_main+0)+0),f
u2357:
	decfsz	((??_main+0)+0),f
	goto	u2357
	decfsz	((??_main+0)+0+1),f
	goto	u2357
	decfsz	((??_main+0)+0+2),f
	goto	u2357
	nop2
opt asmopt_on

	goto	l2649
	line	86
	
l690:	
	line	70
	goto	l2649
	
l691:	
	line	88
	
l692:	
	global	start
	ljmp	start
	opt stack 0
GLOBAL	__end_of_main
	__end_of_main:
;; =============== function _main ends ============

	signat	_main,88
psect	maintext
	global	btemp
	btemp set 07Eh

	DABS	1,126,2	;btemp
	global	wtemp0
	wtemp0 set btemp
	end
